target datalayout = "e-m:e-p270:32:32-p271:32:32-p272:64:64-i64:64-i128:128-f80:128-n8:16:32:64-S128"
target triple = "x86_64-pc-linux-gnu"

%struct.TuplesortPublic = type { ptr, ptr, ptr, ptr, ptr, ptr, ptr, ptr, ptr, i8, i32, ptr, ptr, i32, i8, ptr }
%struct.SortTuple = type { ptr, i64, i8, i32 }
%struct.BrinSortTuple = type { i64, %struct.BrinTuple }
%struct.BrinTuple = type { i32, i8 }

@.str.1 = private unnamed_addr constant [20 x i8] c"tuplesortvariants.c\00", align 1
@.str.8 = private unnamed_addr constant [23 x i8] c"unexpected end of data\00", align 1
@__func__.readtup_index_brin = private unnamed_addr constant [19 x i8] c"readtup_index_brin\00", align 1

; Function Attrs: nounwind uwtable
define internal void @readtup_index_brin(ptr noundef %0, ptr noundef %1, ptr noundef %2, i32 noundef %3) #0 {
  %5 = alloca ptr, align 8
  %6 = alloca ptr, align 8
  %7 = alloca ptr, align 8
  %8 = alloca i32, align 4
  %9 = alloca ptr, align 8
  %10 = alloca ptr, align 8
  %11 = alloca i32, align 4
  store ptr %0, ptr %5, align 8
  store ptr %1, ptr %6, align 8
  store ptr %2, ptr %7, align 8
  store i32 %3, ptr %8, align 4
  call void @llvm.lifetime.start.p0(i64 8, ptr %9) #6
  call void @llvm.lifetime.start.p0(i64 8, ptr %10) #6
  %12 = load ptr, ptr %5, align 8
  store ptr %12, ptr %10, align 8
  call void @llvm.lifetime.start.p0(i64 4, ptr %11) #6
  %13 = load i32, ptr %8, align 4
  %14 = zext i32 %13 to i64
  %15 = sub i64 %14, 4
  %16 = trunc i64 %15 to i32
  store i32 %16, ptr %11, align 4
  %17 = load ptr, ptr %5, align 8
  %18 = load i32, ptr %11, align 4
  %19 = zext i32 %18 to i64
  %20 = add i64 8, %19
  %21 = call ptr @tuplesort_readtup_alloc(ptr noundef %17, i64 noundef %20)
  store ptr %21, ptr %9, align 8
  %22 = load i32, ptr %11, align 4
  %23 = zext i32 %22 to i64
  %24 = load ptr, ptr %9, align 8
  %25 = getelementptr inbounds nuw %struct.BrinSortTuple, ptr %24, i32 0, i32 0
  store i64 %23, ptr %25, align 8
  br label %26

26:                                               ; preds = %4
  %27 = load ptr, ptr %7, align 8
  %28 = load ptr, ptr %9, align 8
  %29 = getelementptr inbounds nuw %struct.BrinSortTuple, ptr %28, i32 0, i32 1
  %30 = load i32, ptr %11, align 4
  %31 = zext i32 %30 to i64
  %32 = call i64 @LogicalTapeRead(ptr noundef %27, ptr noundef %29, i64 noundef %31)
  %33 = load i32, ptr %11, align 4
  %34 = zext i32 %33 to i64
  %35 = icmp ne i64 %32, %34
  br i1 %35, label %36, label %47

36:                                               ; preds = %26
  br label %37

37:                                               ; preds = %36
  br i1 true, label %38, label %40

38:                                               ; preds = %37
  %39 = call zeroext i1 @errstart_cold(i32 noundef 21, ptr noundef null) #7
  br i1 %39, label %42, label %44

40:                                               ; preds = %37
  %41 = call zeroext i1 @errstart(i32 noundef 21, ptr noundef null)
  br i1 %41, label %42, label %44

42:                                               ; preds = %40, %38
  %43 = call i32 (ptr, ...) @errmsg_internal(ptr noundef @.str.8)
  call void @errfinish(ptr noundef @.str.1, i32 noundef 1757, ptr noundef @__func__.readtup_index_brin)
  br label %44

44:                                               ; preds = %42, %40, %38
  unreachable

45:                                               ; No predecessors!
  br label %46

46:                                               ; preds = %45
  br label %47

47:                                               ; preds = %46, %26
  br label %48

48:                                               ; preds = %47
  br label %49

49:                                               ; preds = %48
  %50 = load ptr, ptr %10, align 8
  %51 = getelementptr inbounds nuw %struct.TuplesortPublic, ptr %50, i32 0, i32 13
  %52 = load i32, ptr %51, align 8
  %53 = and i32 %52, 1
  %54 = icmp ne i32 %53, 0
  br i1 %54, label %55, label %74

55:                                               ; preds = %49
  br label %56

56:                                               ; preds = %55
  %57 = load ptr, ptr %7, align 8
  %58 = call i64 @LogicalTapeRead(ptr noundef %57, ptr noundef %11, i64 noundef 4)
  %59 = icmp ne i64 %58, 4
  br i1 %59, label %60, label %71

60:                                               ; preds = %56
  br label %61

61:                                               ; preds = %60
  br i1 true, label %62, label %64

62:                                               ; preds = %61
  %63 = call zeroext i1 @errstart_cold(i32 noundef 21, ptr noundef null) #7
  br i1 %63, label %66, label %68

64:                                               ; preds = %61
  %65 = call zeroext i1 @errstart(i32 noundef 21, ptr noundef null)
  br i1 %65, label %66, label %68

66:                                               ; preds = %64, %62
  %67 = call i32 (ptr, ...) @errmsg_internal(ptr noundef @.str.8)
  call void @errfinish(ptr noundef @.str.1, i32 noundef 1759, ptr noundef @__func__.readtup_index_brin)
  br label %68

68:                                               ; preds = %66, %64, %62
  unreachable

69:                                               ; No predecessors!
  br label %70

70:                                               ; preds = %69
  br label %71

71:                                               ; preds = %70, %56
  br label %72

72:                                               ; preds = %71
  br label %73

73:                                               ; preds = %72
  br label %74

74:                                               ; preds = %73, %49
  %75 = load ptr, ptr %9, align 8
  %76 = load ptr, ptr %6, align 8
  %77 = getelementptr inbounds nuw %struct.SortTuple, ptr %76, i32 0, i32 0
  store ptr %75, ptr %77, align 8
  %78 = load ptr, ptr %9, align 8
  %79 = getelementptr inbounds nuw %struct.BrinSortTuple, ptr %78, i32 0, i32 1
  %80 = getelementptr inbounds nuw %struct.BrinTuple, ptr %79, i32 0, i32 0
  %81 = load i32, ptr %80, align 8
  %82 = zext i32 %81 to i64
  %83 = load ptr, ptr %6, align 8
  %84 = getelementptr inbounds nuw %struct.SortTuple, ptr %83, i32 0, i32 1
  store i64 %82, ptr %84, align 8
  call void @llvm.lifetime.end.p0(i64 4, ptr %11) #6
  call void @llvm.lifetime.end.p0(i64 8, ptr %10) #6
  call void @llvm.lifetime.end.p0(i64 8, ptr %9) #6
  ret void
}